; ModuleID = '62/2445.c'
source_filename = "62/2445.c"
target datalayout = "e-m:e-p270:32:32-p271:32:32-p272:64:64-i64:64-f80:128-n8:16:32:64-S128"
target triple = "x86_64-pc-linux-gnu"

@.str = private unnamed_addr constant [3 x i8] c"%c\00", align 1
@.str.1 = private unnamed_addr constant [2 x i8] c" \00", align 1

; Function Attrs: noinline nounwind uwtable
define dso_local i32 @main() #0 {
  %1 = alloca i32, align 4
  %2 = alloca i32, align 4
  %3 = alloca i32, align 4
  %4 = alloca i32, align 4
  %5 = alloca [101 x i8], align 16
  store i32 0, i32* %1, align 4
  store i32 0, i32* %2, align 4
  %6 = getelementptr inbounds [101 x i8], [101 x i8]* %5, i64 0, i64 0
  %7 = call i32 (i8*, ...) bitcast (i32 (...)* @gets to i32 (i8*, ...)*)(i8* %6)
  store i32 0, i32* %3, align 4
  br label %8

8:                                                ; preds = %53, %0
  %9 = load i32, i32* %3, align 4
  %10 = sext i32 %9 to i64
  %11 = getelementptr inbounds [101 x i8], [101 x i8]* %5, i64 0, i64 %10
  %12 = load i8, i8* %11, align 1
  %13 = sext i8 %12 to i32
  %14 = icmp ne i32 %13, 0
  br i1 %14, label %15, label %56

15:                                               ; preds = %8
  %16 = load i32, i32* %3, align 4
  %17 = sext i32 %16 to i64
  %18 = getelementptr inbounds [101 x i8], [101 x i8]* %5, i64 0, i64 %17
  %19 = load i8, i8* %18, align 1
  %20 = sext i8 %19 to i32
  %21 = icmp ne i32 %20, 32
  br i1 %21, label %22, label %29

22:                                               ; preds = %15
  %23 = load i32, i32* %3, align 4
  %24 = sext i32 %23 to i64
  %25 = getelementptr inbounds [101 x i8], [101 x i8]* %5, i64 0, i64 %24
  %26 = load i8, i8* %25, align 1
  %27 = sext i8 %26 to i32
  %28 = call i32 (i8*, ...) @printf(i8* getelementptr inbounds ([3 x i8], [3 x i8]* @.str, i64 0, i64 0), i32 %27)
  br label %29

29:                                               ; preds = %22, %15
  %30 = load i32, i32* %3, align 4
  %31 = sext i32 %30 to i64
  %32 = getelementptr inbounds [101 x i8], [101 x i8]* %5, i64 0, i64 %31
  %33 = load i8, i8* %32, align 1
  %34 = sext i8 %33 to i32
  %35 = icmp eq i32 %34, 32
  br i1 %35, label %36, label %52

36:                                               ; preds = %29
  %37 = call i32 (i8*, ...) @printf(i8* getelementptr inbounds ([2 x i8], [2 x i8]* @.str.1, i64 0, i64 0))
  %38 = load i32, i32* %3, align 4
  store i32 %38, i32* %4, align 4
  br label %39

39:                                               ; preds = %48, %36
  %40 = load i32, i32* %4, align 4
  %41 = sext i32 %40 to i64
  %42 = getelementptr inbounds [101 x i8], [101 x i8]* %5, i64 0, i64 %41
  %43 = load i8, i8* %42, align 1
  %44 = sext i8 %43 to i32
  %45 = icmp eq i32 %44, 32
  br i1 %45, label %46, label %51

46:                                               ; preds = %39
  %47 = load i32, i32* %4, align 4
  store i32 %47, i32* %3, align 4
  br label %48

48:                                               ; preds = %46
  %49 = load i32, i32* %4, align 4
  %50 = add nsw i32 %49, 1
  store i32 %50, i32* %4, align 4
  br label %39

51:                                               ; preds = %39
  br label %52

52:                                               ; preds = %51, %29
  br label %53

53:                                               ; preds = %52
  %54 = load i32, i32* %3, align 4
  %55 = add nsw i32 %54, 1
  store i32 %55, i32* %3, align 4
  br label %8

56:                                               ; preds = %8
  ret i32 0
}

declare dso_local i32 @gets(...) #1

declare dso_local i32 @printf(i8*, ...) #1


!llvm.module.flags = !{!0}
!llvm.ident = !{!1}

!0 = !{i32 1, !"wchar_size", i32 4}
!1 = !{!"clang version 10.0.0-4ubuntu1 "}
